target datalayout = "e-m:e-p270:32:32-p271:32:32-p272:64:64-i64:64-i128:128-f80:128-n8:16:32:64-S128"
target triple = "x86_64-pc-linux-gnu"

%struct.Vec_Int_t_ = type { i32, i32, ptr }

@.str.86 = private unnamed_addr constant [1 x i8] zeroinitializer, align 1
@.str.87 = private unnamed_addr constant [2 x i8] c"+\00", align 1
@.str.88 = private unnamed_addr constant [3 x i8] c"%c\00", align 1
@.str.89 = private unnamed_addr constant [2 x i8] c"(\00", align 1
@.str.90 = private unnamed_addr constant [2 x i8] c")\00", align 1
@.str.91 = private unnamed_addr constant [3 x i8] c"%s\00", align 1

; Function Attrs: inlinehint nounwind uwtable
define internal i32 @Vec_IntEntry(ptr noundef %0, i32 noundef %1) #3 {
  %3 = alloca ptr, align 8
  %4 = alloca i32, align 4
  store ptr %0, ptr %3, align 8, !tbaa !26
  store i32 %1, ptr %4, align 4, !tbaa !8
  %5 = load ptr, ptr %3, align 8, !tbaa !26
  %6 = getelementptr inbounds nuw %struct.Vec_Int_t_, ptr %5, i32 0, i32 2
  %7 = load ptr, ptr %6, align 8, !tbaa !28
  %8 = load i32, ptr %4, align 4, !tbaa !8
  %9 = sext i32 %8 to i64
  %10 = getelementptr inbounds i32, ptr %7, i64 %9
  %11 = load i32, ptr %10, align 4, !tbaa !8
  ret i32 %11
}

; Function Attrs: nounwind uwtable
define void @Abc_EnumPrint_rec(ptr noundef %0, i32 noundef %1, i32 noundef %2) #0 {
  %4 = alloca ptr, align 8
  %5 = alloca i32, align 4
  %6 = alloca i32, align 4
  %7 = alloca i32, align 4
  %8 = alloca i32, align 4
  %9 = alloca ptr, align 8
  %10 = alloca i32, align 4
  store ptr %0, ptr %4, align 8, !tbaa !26
  store i32 %1, ptr %5, align 4, !tbaa !8
  store i32 %2, ptr %6, align 4, !tbaa !8
  call void @llvm.lifetime.start.p0(i64 4, ptr %7) #12
  %11 = load ptr, ptr %4, align 8, !tbaa !26
  %12 = load i32, ptr %5, align 4, !tbaa !8
  %13 = mul nsw i32 2, %12
  %14 = call i32 @Vec_IntEntry(ptr noundef %11, i32 noundef %13)
  store i32 %14, ptr %7, align 4, !tbaa !8
  call void @llvm.lifetime.start.p0(i64 4, ptr %8) #12
  %15 = load ptr, ptr %4, align 8, !tbaa !26
  %16 = load i32, ptr %5, align 4, !tbaa !8
  %17 = mul nsw i32 2, %16
  %18 = add nsw i32 %17, 1
  %19 = call i32 @Vec_IntEntry(ptr noundef %15, i32 noundef %18)
  store i32 %19, ptr %8, align 4, !tbaa !8
  call void @llvm.lifetime.start.p0(i64 8, ptr %9) #12
  %20 = load i32, ptr %7, align 4, !tbaa !8
  %21 = load i32, ptr %8, align 4, !tbaa !8
  %22 = icmp slt i32 %20, %21
  %23 = select i1 %22, ptr @.str.86, ptr @.str.87
  store ptr %23, ptr %9, align 8, !tbaa !10
  %24 = load i32, ptr %7, align 4, !tbaa !8
  %25 = load i32, ptr %8, align 4, !tbaa !8
  %26 = icmp sgt i32 %24, %25
  br i1 %26, label %27, label %31

27:                                               ; preds = %3
  call void @llvm.lifetime.start.p0(i64 4, ptr %10) #12
  %28 = load i32, ptr %7, align 4, !tbaa !8
  store i32 %28, ptr %10, align 4, !tbaa !8
  %29 = load i32, ptr %8, align 4, !tbaa !8
  store i32 %29, ptr %7, align 4, !tbaa !8
  %30 = load i32, ptr %10, align 4, !tbaa !8
  store i32 %30, ptr %8, align 4, !tbaa !8
  call void @llvm.lifetime.end.p0(i64 4, ptr %10) #12
  br label %31

31:                                               ; preds = %27, %3
  %32 = load i32, ptr %7, align 4, !tbaa !8
  %33 = load i32, ptr %6, align 4, !tbaa !8
  %34 = icmp slt i32 %32, %33
  br i1 %34, label %35, label %39

35:                                               ; preds = %31
  %36 = load i32, ptr %7, align 4, !tbaa !8
  %37 = add nsw i32 97, %36
  %38 = call i32 (ptr, ...) @printf(ptr noundef @.str.88, i32 noundef %37)
  br label %45

39:                                               ; preds = %31
  %40 = call i32 (ptr, ...) @printf(ptr noundef @.str.89)
  %41 = load ptr, ptr %4, align 8, !tbaa !26
  %42 = load i32, ptr %7, align 4, !tbaa !8
  %43 = load i32, ptr %6, align 4, !tbaa !8
  call void @Abc_EnumPrint_rec(ptr noundef %41, i32 noundef %42, i32 noundef %43)
  %44 = call i32 (ptr, ...) @printf(ptr noundef @.str.90)
  br label %45

45:                                               ; preds = %39, %35
  %46 = load ptr, ptr %9, align 8, !tbaa !10
  %47 = call i32 (ptr, ...) @printf(ptr noundef @.str.91, ptr noundef %46)
  %48 = load i32, ptr %8, align 4, !tbaa !8
  %49 = load i32, ptr %6, align 4, !tbaa !8
  %50 = icmp slt i32 %48, %49
  br i1 %50, label %51, label %55

51:                                               ; preds = %45
  %52 = load i32, ptr %8, align 4, !tbaa !8
  %53 = add nsw i32 97, %52
  %54 = call i32 (ptr, ...) @printf(ptr noundef @.str.88, i32 noundef %53)
  br label %61

55:                                               ; preds = %45
  %56 = call i32 (ptr, ...) @printf(ptr noundef @.str.89)
  %57 = load ptr, ptr %4, align 8, !tbaa !26
  %58 = load i32, ptr %8, align 4, !tbaa !8
  %59 = load i32, ptr %6, align 4, !tbaa !8
  call void @Abc_EnumPrint_rec(ptr noundef %57, i32 noundef %58, i32 noundef %59)
  %60 = call i32 (ptr, ...) @printf(ptr noundef @.str.90)
  br label %61

61:                                               ; preds = %55, %51
  call void @llvm.lifetime.end.p0(i64 8, ptr %9) #12
  call void @llvm.lifetime.end.p0(i64 4, ptr %8) #12
  call void @llvm.lifetime.end.p0(i64 4, ptr %7) #12
  ret void
}